target datalayout = "e-m:e-p270:32:32-p271:32:32-p272:64:64-i64:64-i128:128-f80:128-n8:16:32:64-S128"
target triple = "x86_64-pc-linux-gnu"

%struct.lean_object = type { i32, i32 }
%struct.lean_ctor_object = type { %struct.lean_object, [0 x ptr] }

@l___private_Std_Time_Date_PlainDate_0__Std_Time_reprPlainDate____x40_Std_Time_Date_PlainDate___hyg_340____closed__8 = internal global ptr null, align 8
@l_Std_Time_PlainDate_ofYearMonthDayClip___closed__1 = internal global ptr null, align 8
@l_Std_Time_PlainDate_ofYearMonthDayClip___closed__2 = internal global ptr null, align 8
@l_Std_Time_PlainDate_ofYearMonthDayClip___closed__3 = internal global ptr null, align 8

; Function Attrs: inlinehint nounwind uwtable
define internal ptr @lean_box(i64 noundef %0) #0 {
  %2 = alloca i64, align 8
  store i64 %0, ptr %2, align 8, !tbaa !8
  %3 = load i64, ptr %2, align 8, !tbaa !8
  %4 = shl i64 %3, 1
  %5 = or i64 %4, 1
  %6 = inttoptr i64 %5 to ptr
  ret ptr %6
}

; Function Attrs: inlinehint nounwind uwtable
define internal i64 @lean_unbox(ptr noundef %0) #0 {
  %2 = alloca ptr, align 8
  store ptr %0, ptr %2, align 8, !tbaa !4
  %3 = load ptr, ptr %2, align 8, !tbaa !4
  %4 = ptrtoint ptr %3 to i64
  %5 = lshr i64 %4, 1
  ret i64 %5
}

; Function Attrs: inlinehint nounwind uwtable
define internal ptr @lean_to_ctor(ptr noundef %0) #0 {
  %2 = alloca ptr, align 8
  store ptr %0, ptr %2, align 8, !tbaa !4
  %3 = load ptr, ptr %2, align 8, !tbaa !4
  ret ptr %3
}

; Function Attrs: alwaysinline nounwind uwtable
define internal void @lean_dec_ref(ptr noundef %0) #4 {
  %2 = alloca ptr, align 8
  store ptr %0, ptr %2, align 8, !tbaa !4
  %3 = load ptr, ptr %2, align 8, !tbaa !4
  %4 = getelementptr inbounds nuw %struct.lean_object, ptr %3, i32 0, i32 0
  %5 = load i32, ptr %4, align 4, !tbaa !13
  %6 = icmp sgt i32 %5, 1
  %7 = zext i1 %6 to i32
  %8 = sext i32 %7 to i64
  %9 = call i64 @llvm.expect.i64(i64 %8, i64 1)
  %10 = icmp ne i64 %9, 0
  br i1 %10, label %11, label %16

11:                                               ; preds = %1
  %12 = load ptr, ptr %2, align 8, !tbaa !4
  %13 = getelementptr inbounds nuw %struct.lean_object, ptr %12, i32 0, i32 0
  %14 = load i32, ptr %13, align 4, !tbaa !13
  %15 = add i32 %14, -1
  store i32 %15, ptr %13, align 4, !tbaa !13
  br label %24

16:                                               ; preds = %1
  %17 = load ptr, ptr %2, align 8, !tbaa !4
  %18 = getelementptr inbounds nuw %struct.lean_object, ptr %17, i32 0, i32 0
  %19 = load i32, ptr %18, align 4, !tbaa !13
  %20 = icmp ne i32 %19, 0
  br i1 %20, label %21, label %23

21:                                               ; preds = %16
  %22 = load ptr, ptr %2, align 8, !tbaa !4
  call void @lean_dec_ref_cold(ptr noundef %22)
  br label %23

23:                                               ; preds = %21, %16
  br label %24

24:                                               ; preds = %23, %11
  ret void
}

; Function Attrs: inlinehint nounwind uwtable
define internal zeroext i1 @lean_int_eq(ptr noundef %0, ptr noundef %1) #0 {
  %3 = alloca i1, align 1
  %4 = alloca ptr, align 8
  %5 = alloca ptr, align 8
  store ptr %0, ptr %4, align 8, !tbaa !4
  store ptr %1, ptr %5, align 8, !tbaa !4
  %6 = load ptr, ptr %4, align 8, !tbaa !4
  %7 = call zeroext i1 @lean_is_scalar(ptr noundef %6)
  br i1 %7, label %8, label %11

8:                                                ; preds = %2
  %9 = load ptr, ptr %5, align 8, !tbaa !4
  %10 = call zeroext i1 @lean_is_scalar(ptr noundef %9)
  br label %11

11:                                               ; preds = %8, %2
  %12 = phi i1 [ false, %2 ], [ %10, %8 ]
  %13 = zext i1 %12 to i32
  %14 = sext i32 %13 to i64
  %15 = call i64 @llvm.expect.i64(i64 %14, i64 1)
  %16 = icmp ne i64 %15, 0
  br i1 %16, label %17, label %21

17:                                               ; preds = %11
  %18 = load ptr, ptr %4, align 8, !tbaa !4
  %19 = load ptr, ptr %5, align 8, !tbaa !4
  %20 = icmp eq ptr %18, %19
  store i1 %20, ptr %3, align 1
  br label %25

21:                                               ; preds = %11
  %22 = load ptr, ptr %4, align 8, !tbaa !4
  %23 = load ptr, ptr %5, align 8, !tbaa !4
  %24 = call zeroext i1 @lean_int_big_eq(ptr noundef %22, ptr noundef %23)
  store i1 %24, ptr %3, align 1
  br label %25

25:                                               ; preds = %21, %17
  %26 = load i1, ptr %3, align 1
  ret i1 %26
}

; Function Attrs: inlinehint nounwind uwtable
define internal ptr @lean_int64_to_int(i64 noundef %0) #0 {
  %2 = alloca ptr, align 8
  %3 = alloca i64, align 8
  store i64 %0, ptr %3, align 8, !tbaa !8
  %4 = load i64, ptr %3, align 8, !tbaa !8
  %5 = icmp sle i64 -2147483648, %4
  br i1 %5, label %6, label %9

6:                                                ; preds = %1
  %7 = load i64, ptr %3, align 8, !tbaa !8
  %8 = icmp sle i64 %7, 2147483647
  br label %9

9:                                                ; preds = %6, %1
  %10 = phi i1 [ false, %1 ], [ %8, %6 ]
  %11 = zext i1 %10 to i32
  %12 = sext i32 %11 to i64
  %13 = call i64 @llvm.expect.i64(i64 %12, i64 1)
  %14 = icmp ne i64 %13, 0
  br i1 %14, label %15, label %20

15:                                               ; preds = %9
  %16 = load i64, ptr %3, align 8, !tbaa !8
  %17 = trunc i64 %16 to i32
  %18 = zext i32 %17 to i64
  %19 = call ptr @lean_box(i64 noundef %18)
  store ptr %19, ptr %2, align 8
  br label %23

20:                                               ; preds = %9
  %21 = load i64, ptr %3, align 8, !tbaa !8
  %22 = call ptr @lean_big_int64_to_int(i64 noundef %21)
  store ptr %22, ptr %2, align 8
  br label %23

23:                                               ; preds = %20, %15
  %24 = load ptr, ptr %2, align 8
  ret ptr %24
}

; Function Attrs: inlinehint nounwind uwtable
define internal i64 @lean_scalar_to_int64(ptr noundef %0) #0 {
  %2 = alloca ptr, align 8
  store ptr %0, ptr %2, align 8, !tbaa !4
  %3 = load ptr, ptr %2, align 8, !tbaa !4
  %4 = call i64 @lean_unbox(ptr noundef %3)
  %5 = trunc i64 %4 to i32
  %6 = sext i32 %5 to i64
  ret i64 %6
}

; Function Attrs: alwaysinline nounwind uwtable
define internal zeroext i1 @lean_is_scalar(ptr noundef %0) #4 {
  %2 = alloca ptr, align 8
  store ptr %0, ptr %2, align 8, !tbaa !4
  %3 = load ptr, ptr %2, align 8, !tbaa !4
  %4 = ptrtoint ptr %3 to i64
  %5 = and i64 %4, 1
  %6 = icmp eq i64 %5, 1
  ret i1 %6
}

; Function Attrs: inlinehint nounwind uwtable
define internal ptr @lean_ctor_obj_cptr(ptr noundef %0) #0 {
  %2 = alloca ptr, align 8
  store ptr %0, ptr %2, align 8, !tbaa !4
  %3 = load ptr, ptr %2, align 8, !tbaa !4
  %4 = call ptr @lean_to_ctor(ptr noundef %3)
  %5 = getelementptr inbounds nuw %struct.lean_ctor_object, ptr %4, i32 0, i32 1
  %6 = getelementptr inbounds [0 x ptr], ptr %5, i64 0, i64 0
  ret ptr %6
}

; Function Attrs: alwaysinline nounwind uwtable
define internal void @lean_dec(ptr noundef %0) #4 {
  %2 = alloca ptr, align 8
  store ptr %0, ptr %2, align 8, !tbaa !4
  %3 = load ptr, ptr %2, align 8, !tbaa !4
  %4 = call zeroext i1 @lean_is_scalar(ptr noundef %3)
  br i1 %4, label %7, label %5

5:                                                ; preds = %1
  %6 = load ptr, ptr %2, align 8, !tbaa !4
  call void @lean_dec_ref(ptr noundef %6)
  br label %7

7:                                                ; preds = %5, %1
  ret void
}

; Function Attrs: inlinehint nounwind uwtable
define internal zeroext i8 @lean_int_dec_eq(ptr noundef %0, ptr noundef %1) #0 {
  %3 = alloca ptr, align 8
  %4 = alloca ptr, align 8
  store ptr %0, ptr %3, align 8, !tbaa !4
  store ptr %1, ptr %4, align 8, !tbaa !4
  %5 = load ptr, ptr %3, align 8, !tbaa !4
  %6 = load ptr, ptr %4, align 8, !tbaa !4
  %7 = call zeroext i1 @lean_int_eq(ptr noundef %5, ptr noundef %6)
  %8 = zext i1 %7 to i8
  ret i8 %8
}

; Function Attrs: inlinehint nounwind uwtable
define internal ptr @lean_int_mod(ptr noundef %0, ptr noundef %1) #0 {
  %3 = alloca ptr, align 8
  %4 = alloca ptr, align 8
  %5 = alloca ptr, align 8
  %6 = alloca i64, align 8
  %7 = alloca i64, align 8
  %8 = alloca i32, align 4
  store ptr %0, ptr %4, align 8, !tbaa !4
  store ptr %1, ptr %5, align 8, !tbaa !4
  %9 = load ptr, ptr %4, align 8, !tbaa !4
  %10 = call zeroext i1 @lean_is_scalar(ptr noundef %9)
  br i1 %10, label %11, label %14

11:                                               ; preds = %2
  %12 = load ptr, ptr %5, align 8, !tbaa !4
  %13 = call zeroext i1 @lean_is_scalar(ptr noundef %12)
  br label %14

14:                                               ; preds = %11, %2
  %15 = phi i1 [ false, %2 ], [ %13, %11 ]
  %16 = zext i1 %15 to i32
  %17 = sext i32 %16 to i64
  %18 = call i64 @llvm.expect.i64(i64 %17, i64 1)
  %19 = icmp ne i64 %18, 0
  br i1 %19, label %20, label %35

20:                                               ; preds = %14
  call void @llvm.lifetime.start.p0(i64 8, ptr %6) #7
  %21 = load ptr, ptr %4, align 8, !tbaa !4
  %22 = call i64 @lean_scalar_to_int64(ptr noundef %21)
  store i64 %22, ptr %6, align 8, !tbaa !8
  call void @llvm.lifetime.start.p0(i64 8, ptr %7) #7
  %23 = load ptr, ptr %5, align 8, !tbaa !4
  %24 = call i64 @lean_scalar_to_int64(ptr noundef %23)
  store i64 %24, ptr %7, align 8, !tbaa !8
  %25 = load i64, ptr %7, align 8, !tbaa !8
  %26 = icmp eq i64 %25, 0
  br i1 %26, label %27, label %29

27:                                               ; preds = %20
  %28 = load ptr, ptr %4, align 8, !tbaa !4
  store ptr %28, ptr %3, align 8
  store i32 1, ptr %8, align 4
  br label %34

29:                                               ; preds = %20
  %30 = load i64, ptr %6, align 8, !tbaa !8
  %31 = load i64, ptr %7, align 8, !tbaa !8
  %32 = srem i64 %30, %31
  %33 = call ptr @lean_int64_to_int(i64 noundef %32)
  store ptr %33, ptr %3, align 8
  store i32 1, ptr %8, align 4
  br label %34

34:                                               ; preds = %29, %27
  call void @llvm.lifetime.end.p0(i64 8, ptr %7) #7
  call void @llvm.lifetime.end.p0(i64 8, ptr %6) #7
  br label %39

35:                                               ; preds = %14
  %36 = load ptr, ptr %4, align 8, !tbaa !4
  %37 = load ptr, ptr %5, align 8, !tbaa !4
  %38 = call ptr @lean_int_big_mod(ptr noundef %36, ptr noundef %37)
  store ptr %38, ptr %3, align 8
  br label %39

39:                                               ; preds = %35, %34
  %40 = load ptr, ptr %3, align 8
  ret ptr %40
}

; Function Attrs: inlinehint nounwind uwtable
define internal ptr @lean_ctor_get(ptr noundef %0, i32 noundef %1) #0 {
  %3 = alloca ptr, align 8
  %4 = alloca i32, align 4
  store ptr %0, ptr %3, align 8, !tbaa !4
  store i32 %1, ptr %4, align 4, !tbaa !11
  %5 = load ptr, ptr %3, align 8, !tbaa !4
  %6 = call ptr @lean_ctor_obj_cptr(ptr noundef %5)
  %7 = load i32, ptr %4, align 4, !tbaa !11
  %8 = zext i32 %7 to i64
  %9 = getelementptr inbounds nuw ptr, ptr %6, i64 %8
  %10 = load ptr, ptr %9, align 8, !tbaa !4
  ret ptr %10
}

; Function Attrs: nounwind uwtable
define zeroext i8 @l_Std_Time_PlainDate_inLeapYear(ptr noundef %0) #1 {
  %2 = alloca i8, align 1
  %3 = alloca ptr, align 8
  %4 = alloca ptr, align 8
  %5 = alloca ptr, align 8
  %6 = alloca ptr, align 8
  %7 = alloca ptr, align 8
  %8 = alloca i8, align 1
  %9 = alloca i8, align 1
  %10 = alloca i32, align 4
  %11 = alloca ptr, align 8
  %12 = alloca ptr, align 8
  %13 = alloca i8, align 1
  %14 = alloca i8, align 1
  %15 = alloca ptr, align 8
  %16 = alloca ptr, align 8
  %17 = alloca i8, align 1
  %18 = alloca i8, align 1
  store ptr %0, ptr %3, align 8, !tbaa !4
  br label %19

19:                                               ; preds = %1
  call void @llvm.lifetime.start.p0(i64 8, ptr %4) #7
  call void @llvm.lifetime.start.p0(i64 8, ptr %5) #7
  call void @llvm.lifetime.start.p0(i64 8, ptr %6) #7
  call void @llvm.lifetime.start.p0(i64 8, ptr %7) #7
  call void @llvm.lifetime.start.p0(i64 1, ptr %8) #7
  %20 = load ptr, ptr %3, align 8, !tbaa !4
  %21 = call ptr @lean_ctor_get(ptr noundef %20, i32 noundef 0)
  store ptr %21, ptr %4, align 8, !tbaa !4
  %22 = load ptr, ptr @l_Std_Time_PlainDate_ofYearMonthDayClip___closed__1, align 8, !tbaa !4
  store ptr %22, ptr %5, align 8, !tbaa !4
  %23 = load ptr, ptr %4, align 8, !tbaa !4
  %24 = load ptr, ptr %5, align 8, !tbaa !4
  %25 = call ptr @lean_int_mod(ptr noundef %23, ptr noundef %24)
  store ptr %25, ptr %6, align 8, !tbaa !4
  %26 = load ptr, ptr @l___private_Std_Time_Date_PlainDate_0__Std_Time_reprPlainDate____x40_Std_Time_Date_PlainDate___hyg_340____closed__8, align 8, !tbaa !4
  store ptr %26, ptr %7, align 8, !tbaa !4
  %27 = load ptr, ptr %6, align 8, !tbaa !4
  %28 = load ptr, ptr %7, align 8, !tbaa !4
  %29 = call zeroext i8 @lean_int_dec_eq(ptr noundef %27, ptr noundef %28)
  store i8 %29, ptr %8, align 1, !tbaa !10
  %30 = load ptr, ptr %6, align 8, !tbaa !4
  call void @lean_dec(ptr noundef %30)
  %31 = load i8, ptr %8, align 1, !tbaa !10
  %32 = zext i8 %31 to i32
  %33 = icmp eq i32 %32, 0
  br i1 %33, label %34, label %36

34:                                               ; preds = %19
  call void @llvm.lifetime.start.p0(i64 1, ptr %9) #7
  store i8 0, ptr %9, align 1, !tbaa !10
  %35 = load i8, ptr %9, align 1, !tbaa !10
  store i8 %35, ptr %2, align 1
  store i32 1, ptr %10, align 4
  call void @llvm.lifetime.end.p0(i64 1, ptr %9) #7
  br label %63

36:                                               ; preds = %19
  call void @llvm.lifetime.start.p0(i64 8, ptr %11) #7
  call void @llvm.lifetime.start.p0(i64 8, ptr %12) #7
  call void @llvm.lifetime.start.p0(i64 1, ptr %13) #7
  call void @llvm.lifetime.start.p0(i64 1, ptr %14) #7
  %37 = load ptr, ptr @l_Std_Time_PlainDate_ofYearMonthDayClip___closed__2, align 8, !tbaa !4
  store ptr %37, ptr %11, align 8, !tbaa !4
  %38 = load ptr, ptr %4, align 8, !tbaa !4
  %39 = load ptr, ptr %11, align 8, !tbaa !4
  %40 = call ptr @lean_int_mod(ptr noundef %38, ptr noundef %39)
  store ptr %40, ptr %12, align 8, !tbaa !4
  %41 = load ptr, ptr %12, align 8, !tbaa !4
  %42 = load ptr, ptr %7, align 8, !tbaa !4
  %43 = call zeroext i8 @lean_int_dec_eq(ptr noundef %41, ptr noundef %42)
  store i8 %43, ptr %13, align 1, !tbaa !10
  %44 = load ptr, ptr %12, align 8, !tbaa !4
  call void @lean_dec(ptr noundef %44)
  %45 = load i8, ptr %13, align 1, !tbaa !10
  %46 = call zeroext i8 @l_instDecidableNot___rarg(i8 noundef zeroext %45)
  store i8 %46, ptr %14, align 1, !tbaa !10
  %47 = load i8, ptr %14, align 1, !tbaa !10
  %48 = zext i8 %47 to i32
  %49 = icmp eq i32 %48, 0
  br i1 %49, label %50, label %60

50:                                               ; preds = %36
  call void @llvm.lifetime.start.p0(i64 8, ptr %15) #7
  call void @llvm.lifetime.start.p0(i64 8, ptr %16) #7
  call void @llvm.lifetime.start.p0(i64 1, ptr %17) #7
  %51 = load ptr, ptr @l_Std_Time_PlainDate_ofYearMonthDayClip___closed__3, align 8, !tbaa !4
  store ptr %51, ptr %15, align 8, !tbaa !4
  %52 = load ptr, ptr %4, align 8, !tbaa !4
  %53 = load ptr, ptr %15, align 8, !tbaa !4
  %54 = call ptr @lean_int_mod(ptr noundef %52, ptr noundef %53)
  store ptr %54, ptr %16, align 8, !tbaa !4
  %55 = load ptr, ptr %16, align 8, !tbaa !4
  %56 = load ptr, ptr %7, align 8, !tbaa !4
  %57 = call zeroext i8 @lean_int_dec_eq(ptr noundef %55, ptr noundef %56)
  store i8 %57, ptr %17, align 1, !tbaa !10
  %58 = load ptr, ptr %16, align 8, !tbaa !4
  call void @lean_dec(ptr noundef %58)
  %59 = load i8, ptr %17, align 1, !tbaa !10
  store i8 %59, ptr %2, align 1
  store i32 1, ptr %10, align 4
  call void @llvm.lifetime.end.p0(i64 1, ptr %17) #7
  call void @llvm.lifetime.end.p0(i64 8, ptr %16) #7
  call void @llvm.lifetime.end.p0(i64 8, ptr %15) #7
  br label %62

60:                                               ; preds = %36
  call void @llvm.lifetime.start.p0(i64 1, ptr %18) #7
  store i8 1, ptr %18, align 1, !tbaa !10
  %61 = load i8, ptr %18, align 1, !tbaa !10
  store i8 %61, ptr %2, align 1
  store i32 1, ptr %10, align 4
  call void @llvm.lifetime.end.p0(i64 1, ptr %18) #7
  br label %62

62:                                               ; preds = %60, %50
  call void @llvm.lifetime.end.p0(i64 1, ptr %14) #7
  call void @llvm.lifetime.end.p0(i64 1, ptr %13) #7
  call void @llvm.lifetime.end.p0(i64 8, ptr %12) #7
  call void @llvm.lifetime.end.p0(i64 8, ptr %11) #7
  br label %63

63:                                               ; preds = %62, %34
  call void @llvm.lifetime.end.p0(i64 1, ptr %8) #7
  call void @llvm.lifetime.end.p0(i64 8, ptr %7) #7
  call void @llvm.lifetime.end.p0(i64 8, ptr %6) #7
  call void @llvm.lifetime.end.p0(i64 8, ptr %5) #7
  call void @llvm.lifetime.end.p0(i64 8, ptr %4) #7
  %64 = load i8, ptr %2, align 1
  ret i8 %64
}