; Function Attrs: nounwind uwtable
define zeroext range(i8 0, 2) i8 @l_Std_Time_PlainDate_inLeapYear(ptr noundef readonly captures(none) %0) local_unnamed_addr #0 {
  %2 = getelementptr inbounds nuw i8, ptr %0, i64 8
  %3 = load ptr, ptr %2, align 8, !tbaa !4
  %4 = load ptr, ptr @l_Std_Time_PlainDate_ofYearMonthDayClip___closed__1, align 8, !tbaa !4
  %5 = ptrtoint ptr %3 to i64
  %6 = and i64 %5, 1
  %.not.i28 = icmp eq i64 %6, 0
  br i1 %.not.i28, label %.critedge.i, label %7, !prof !8

7:                                                ; preds = %1
  %8 = ptrtoint ptr %4 to i64
  %9 = and i64 %8, 1
  %.not11.i = icmp eq i64 %9, 0
  br i1 %.not11.i, label %.critedge.i, label %10, !prof !8

10:                                               ; preds = %7
  %11 = shl i64 %8, 31
  %12 = icmp ult i64 %11, 4294967296
  br i1 %12, label %lean_int_mod.exit, label %13

13:                                               ; preds = %10
  %14 = ashr i64 %11, 32
  %15 = shl i64 %5, 31
  %16 = ashr i64 %15, 32
  %17 = srem i64 %16, %14
  %18 = shl nsw i64 %17, 1
  %19 = and i64 %18, 8589934590
  %20 = or disjoint i64 %19, 1
  %21 = inttoptr i64 %20 to ptr
  br label %lean_int_mod.exit

.critedge.i:                                      ; preds = %7, %1
  %22 = tail call ptr @lean_int_big_mod(ptr noundef %3, ptr noundef %4) #5
  br label %lean_int_mod.exit

lean_int_mod.exit:                                ; preds = %10, %13, %.critedge.i
  %.1.i = phi ptr [ %22, %.critedge.i ], [ %3, %10 ], [ %21, %13 ]
  %23 = load ptr, ptr @l___private_Std_Time_Date_PlainDate_0__Std_Time_reprPlainDate____x40_Std_Time_Date_PlainDate___hyg_340____closed__8, align 8, !tbaa !4
  %24 = ptrtoint ptr %.1.i to i64
  %25 = ptrtoint ptr %23 to i64
  %26 = and i64 %24, 1
  %27 = and i64 %26, %25
  %or.cond.not.i.i = icmp eq i64 %27, 0
  br i1 %or.cond.not.i.i, label %.critedge.i.i, label %28, !prof !15

28:                                               ; preds = %lean_int_mod.exit
  %29 = icmp eq ptr %.1.i, %23
  br label %lean_int_dec_eq.exit

.critedge.i.i:                                    ; preds = %lean_int_mod.exit
  %30 = tail call zeroext i1 @lean_int_big_eq(ptr noundef %.1.i, ptr noundef %23) #5
  br label %lean_int_dec_eq.exit

lean_int_dec_eq.exit:                             ; preds = %28, %.critedge.i.i
  %.0.i.i = phi i1 [ %29, %28 ], [ %30, %.critedge.i.i ]
  %.not = icmp eq i64 %26, 0
  br i1 %.not, label %31, label %lean_dec.exit23

31:                                               ; preds = %lean_int_dec_eq.exit
  %32 = load i32, ptr %.1.i, align 4, !tbaa !9
  %33 = icmp sgt i32 %32, 1
  br i1 %33, label %34, label %36, !prof !14

34:                                               ; preds = %31
  %35 = add nsw i32 %32, -1
  store i32 %35, ptr %.1.i, align 4, !tbaa !9
  br label %lean_dec.exit23

36:                                               ; preds = %31
  %.not.i = icmp eq i32 %32, 0
  br i1 %.not.i, label %lean_dec.exit23, label %37

37:                                               ; preds = %36
  tail call void @lean_dec_ref_cold(ptr noundef nonnull %.1.i) #5
  br label %lean_dec.exit23

lean_dec.exit23:                                  ; preds = %37, %36, %34, %lean_int_dec_eq.exit
  br i1 %.0.i.i, label %38, label %lean_dec.exit

38:                                               ; preds = %lean_dec.exit23
  %39 = load ptr, ptr @l_Std_Time_PlainDate_ofYearMonthDayClip___closed__2, align 8, !tbaa !4
  br i1 %.not.i28, label %.critedge.i32, label %40, !prof !8

40:                                               ; preds = %38
  %41 = ptrtoint ptr %39 to i64
  %42 = and i64 %41, 1
  %.not11.i30 = icmp eq i64 %42, 0
  br i1 %.not11.i30, label %.critedge.i32, label %43, !prof !8

43:                                               ; preds = %40
  %44 = shl i64 %41, 31
  %45 = icmp ult i64 %44, 4294967296
  br i1 %45, label %lean_int_mod.exit33, label %46

46:                                               ; preds = %43
  %47 = ashr i64 %44, 32
  %48 = shl i64 %5, 31
  %49 = ashr i64 %48, 32
  %50 = srem i64 %49, %47
  %51 = shl nsw i64 %50, 1
  %52 = and i64 %51, 8589934590
  %53 = or disjoint i64 %52, 1
  %54 = inttoptr i64 %53 to ptr
  br label %lean_int_mod.exit33

.critedge.i32:                                    ; preds = %40, %38
  %55 = tail call ptr @lean_int_big_mod(ptr noundef %3, ptr noundef %39) #5
  br label %lean_int_mod.exit33

lean_int_mod.exit33:                              ; preds = %43, %46, %.critedge.i32
  %.1.i31 = phi ptr [ %55, %.critedge.i32 ], [ %3, %43 ], [ %54, %46 ]
  %56 = ptrtoint ptr %.1.i31 to i64
  %57 = and i64 %56, 1
  %58 = and i64 %57, %25
  %or.cond.not.i.i34 = icmp eq i64 %58, 0
  br i1 %or.cond.not.i.i34, label %.critedge.i.i36, label %59, !prof !15

59:                                               ; preds = %lean_int_mod.exit33
  %60 = icmp eq ptr %.1.i31, %23
  br label %lean_int_dec_eq.exit37

.critedge.i.i36:                                  ; preds = %lean_int_mod.exit33
  %61 = tail call zeroext i1 @lean_int_big_eq(ptr noundef %.1.i31, ptr noundef %23) #5
  br label %lean_int_dec_eq.exit37

lean_int_dec_eq.exit37:                           ; preds = %59, %.critedge.i.i36
  %.0.i.i35 = phi i1 [ %60, %59 ], [ %61, %.critedge.i.i36 ]
  %62 = zext i1 %.0.i.i35 to i8
  %.not47 = icmp eq i64 %57, 0
  br i1 %.not47, label %63, label %lean_dec.exit22

63:                                               ; preds = %lean_int_dec_eq.exit37
  %64 = load i32, ptr %.1.i31, align 4, !tbaa !9
  %65 = icmp sgt i32 %64, 1
  br i1 %65, label %66, label %68, !prof !14

66:                                               ; preds = %63
  %67 = add nsw i32 %64, -1
  store i32 %67, ptr %.1.i31, align 4, !tbaa !9
  br label %lean_dec.exit22

68:                                               ; preds = %63
  %.not.i24 = icmp eq i32 %64, 0
  br i1 %.not.i24, label %lean_dec.exit22, label %69

69:                                               ; preds = %68
  tail call void @lean_dec_ref_cold(ptr noundef nonnull %.1.i31) #5
  br label %lean_dec.exit22

lean_dec.exit22:                                  ; preds = %69, %68, %66, %lean_int_dec_eq.exit37
  %70 = tail call zeroext i8 @l_instDecidableNot___rarg(i8 noundef zeroext %62) #5
  %71 = icmp eq i8 %70, 0
  br i1 %71, label %72, label %lean_dec.exit

72:                                               ; preds = %lean_dec.exit22
  %73 = load ptr, ptr @l_Std_Time_PlainDate_ofYearMonthDayClip___closed__3, align 8, !tbaa !4
  br i1 %.not.i28, label %.critedge.i41, label %74, !prof !8

74:                                               ; preds = %72
  %75 = ptrtoint ptr %73 to i64
  %76 = and i64 %75, 1
  %.not11.i39 = icmp eq i64 %76, 0
  br i1 %.not11.i39, label %.critedge.i41, label %77, !prof !8

77:                                               ; preds = %74
  %78 = shl i64 %75, 31
  %79 = icmp ult i64 %78, 4294967296
  br i1 %79, label %lean_int_mod.exit42, label %80

80:                                               ; preds = %77
  %81 = ashr i64 %78, 32
  %82 = shl i64 %5, 31
  %83 = ashr i64 %82, 32
  %84 = srem i64 %83, %81
  %85 = shl nsw i64 %84, 1
  %86 = and i64 %85, 8589934590
  %87 = or disjoint i64 %86, 1
  %88 = inttoptr i64 %87 to ptr
  br label %lean_int_mod.exit42

.critedge.i41:                                    ; preds = %74, %72
  %89 = tail call ptr @lean_int_big_mod(ptr noundef %3, ptr noundef %73) #5
  br label %lean_int_mod.exit42

lean_int_mod.exit42:                              ; preds = %77, %80, %.critedge.i41
  %.1.i40 = phi ptr [ %89, %.critedge.i41 ], [ %3, %77 ], [ %88, %80 ]
  %90 = ptrtoint ptr %.1.i40 to i64
  %91 = and i64 %90, 1
  %92 = and i64 %91, %25
  %or.cond.not.i.i43 = icmp eq i64 %92, 0
  br i1 %or.cond.not.i.i43, label %.critedge.i.i45, label %93, !prof !15

93:                                               ; preds = %lean_int_mod.exit42
  %94 = icmp eq ptr %.1.i40, %23
  br label %lean_int_dec_eq.exit46

.critedge.i.i45:                                  ; preds = %lean_int_mod.exit42
  %95 = tail call zeroext i1 @lean_int_big_eq(ptr noundef %.1.i40, ptr noundef %23) #5
  br label %lean_int_dec_eq.exit46

lean_int_dec_eq.exit46:                           ; preds = %93, %.critedge.i.i45
  %.0.i.i44 = phi i1 [ %94, %93 ], [ %95, %.critedge.i.i45 ]
  %.not48 = icmp eq i64 %91, 0
  br i1 %.not48, label %96, label %lean_dec.exit

96:                                               ; preds = %lean_int_dec_eq.exit46
  %97 = load i32, ptr %.1.i40, align 4, !tbaa !9
  %98 = icmp sgt i32 %97, 1
  br i1 %98, label %99, label %101, !prof !14

99:                                               ; preds = %96
  %100 = add nsw i32 %97, -1
  store i32 %100, ptr %.1.i40, align 4, !tbaa !9
  br label %lean_dec.exit

101:                                              ; preds = %96
  %.not.i26 = icmp eq i32 %97, 0
  br i1 %.not.i26, label %lean_dec.exit, label %102

102:                                              ; preds = %101
  tail call void @lean_dec_ref_cold(ptr noundef nonnull %.1.i40) #5
  br label %lean_dec.exit

lean_dec.exit:                                    ; preds = %lean_int_dec_eq.exit46, %99, %101, %102, %lean_dec.exit22, %lean_dec.exit23
  %.0.shrunk = phi i1 [ false, %lean_dec.exit23 ], [ true, %lean_dec.exit22 ], [ %.0.i.i44, %102 ], [ %.0.i.i44, %101 ], [ %.0.i.i44, %99 ], [ %.0.i.i44, %lean_int_dec_eq.exit46 ]
  %.0 = zext i1 %.0.shrunk to i8
  ret i8 %.0
}